target datalayout = "e-m:e-p270:32:32-p271:32:32-p272:64:64-i64:64-i128:128-f80:128-n8:16:32:64-S128"
target triple = "x86_64-pc-linux-gnu"

%struct.IDAMemRec = type { double, ptr, ptr, i32, double, double, ptr, i32, ptr, ptr, i32, ptr, ptr, i32, i32, double, double, ptr, i32, i32, i32, ptr, ptr, i32, ptr, ptr, ptr, i32, double, i32, i32, double, ptr, ptr, i32, ptr, ptr, i32, i32, i32, double, ptr, ptr, [6 x ptr], [6 x double], [6 x double], [6 x double], [6 x double], [6 x double], ptr, ptr, ptr, ptr, ptr, ptr, ptr, ptr, ptr, ptr, ptr, ptr, ptr, ptr, ptr, [6 x ptr], ptr, ptr, ptr, ptr, [6 x ptr], ptr, ptr, ptr, ptr, ptr, ptr, ptr, ptr, ptr, ptr, ptr, ptr, ptr, ptr, [6 x ptr], ptr, ptr, ptr, ptr, ptr, double, ptr, ptr, i32, i32, i32, i32, i32, i32, i32, double, double, double, i32, double, i32, i32, i32, i32, double, double, double, double, double, double, double, double, double, double, double, double, double, double, i32, i32, i32, i32, i32, i64, double, i32, i64, i64, i64, i64, i64, i64, i64, i64, i64, i64, i64, i64, i64, i64, i64, i64, i64, i64, i64, i64, i64, i64, i64, i64, ptr, ptr, ptr, i32, i32, i32, i32, i32, i32, i32, i32, i32, i32, i32, i32, i32, ptr, ptr, ptr, ptr, ptr, ptr, i32, i32, i32, i32, i32, i32, double, double, double, ptr, i32, ptr, ptr, double, double, double, ptr, ptr, ptr, double, double, i32, i32, i64, ptr, i32, i32, ptr, i32 }

; Function Attrs: nounwind uwtable
define internal void @IDASensFreeVectors(ptr noundef %0) #0 {
  %2 = alloca ptr, align 8
  %3 = alloca i32, align 4
  %4 = alloca i32, align 4
  store ptr %0, ptr %2, align 8, !tbaa !3
  call void @llvm.lifetime.start.p0(i64 4, ptr %3) #8
  call void @llvm.lifetime.start.p0(i64 4, ptr %4) #8
  %5 = load ptr, ptr %2, align 8, !tbaa !3
  %6 = getelementptr inbounds nuw %struct.IDAMemRec, ptr %5, i32 0, i32 74
  %7 = load ptr, ptr %6, align 8, !tbaa !190
  %8 = load ptr, ptr %2, align 8, !tbaa !3
  %9 = getelementptr inbounds nuw %struct.IDAMemRec, ptr %8, i32 0, i32 19
  %10 = load i32, ptr %9, align 4, !tbaa !173
  call void @N_VDestroyVectorArray(ptr noundef %7, i32 noundef %10)
  %11 = load ptr, ptr %2, align 8, !tbaa !3
  %12 = getelementptr inbounds nuw %struct.IDAMemRec, ptr %11, i32 0, i32 73
  %13 = load ptr, ptr %12, align 8, !tbaa !189
  %14 = load ptr, ptr %2, align 8, !tbaa !3
  %15 = getelementptr inbounds nuw %struct.IDAMemRec, ptr %14, i32 0, i32 19
  %16 = load i32, ptr %15, align 4, !tbaa !173
  call void @N_VDestroyVectorArray(ptr noundef %13, i32 noundef %16)
  %17 = load ptr, ptr %2, align 8, !tbaa !3
  %18 = getelementptr inbounds nuw %struct.IDAMemRec, ptr %17, i32 0, i32 72
  %19 = load ptr, ptr %18, align 8, !tbaa !188
  %20 = load ptr, ptr %2, align 8, !tbaa !3
  %21 = getelementptr inbounds nuw %struct.IDAMemRec, ptr %20, i32 0, i32 19
  %22 = load i32, ptr %21, align 4, !tbaa !173
  call void @N_VDestroyVectorArray(ptr noundef %19, i32 noundef %22)
  %23 = load ptr, ptr %2, align 8, !tbaa !3
  %24 = getelementptr inbounds nuw %struct.IDAMemRec, ptr %23, i32 0, i32 71
  %25 = load ptr, ptr %24, align 8, !tbaa !187
  %26 = load ptr, ptr %2, align 8, !tbaa !3
  %27 = getelementptr inbounds nuw %struct.IDAMemRec, ptr %26, i32 0, i32 19
  %28 = load i32, ptr %27, align 4, !tbaa !173
  call void @N_VDestroyVectorArray(ptr noundef %25, i32 noundef %28)
  %29 = load ptr, ptr %2, align 8, !tbaa !3
  %30 = getelementptr inbounds nuw %struct.IDAMemRec, ptr %29, i32 0, i32 70
  %31 = load ptr, ptr %30, align 8, !tbaa !186
  %32 = load ptr, ptr %2, align 8, !tbaa !3
  %33 = getelementptr inbounds nuw %struct.IDAMemRec, ptr %32, i32 0, i32 19
  %34 = load i32, ptr %33, align 4, !tbaa !173
  call void @N_VDestroyVectorArray(ptr noundef %31, i32 noundef %34)
  %35 = load ptr, ptr %2, align 8, !tbaa !3
  %36 = getelementptr inbounds nuw %struct.IDAMemRec, ptr %35, i32 0, i32 77
  %37 = load ptr, ptr %36, align 8, !tbaa !185
  call void @N_VDestroy(ptr noundef %37)
  %38 = load ptr, ptr %2, align 8, !tbaa !3
  %39 = getelementptr inbounds nuw %struct.IDAMemRec, ptr %38, i32 0, i32 127
  %40 = load i32, ptr %39, align 8, !tbaa !42
  %41 = icmp sgt i32 %40, 4
  br i1 %41, label %42, label %46

42:                                               ; preds = %1
  %43 = load ptr, ptr %2, align 8, !tbaa !3
  %44 = getelementptr inbounds nuw %struct.IDAMemRec, ptr %43, i32 0, i32 127
  %45 = load i32, ptr %44, align 8, !tbaa !42
  br label %47

46:                                               ; preds = %1
  br label %47

47:                                               ; preds = %46, %42
  %48 = phi i32 [ %45, %42 ], [ 4, %46 ]
  store i32 %48, ptr %4, align 4, !tbaa !88
  store i32 0, ptr %3, align 4, !tbaa !88
  br label %49

49:                                               ; preds = %63, %47
  %50 = load i32, ptr %3, align 4, !tbaa !88
  %51 = load i32, ptr %4, align 4, !tbaa !88
  %52 = icmp sle i32 %50, %51
  br i1 %52, label %53, label %66

53:                                               ; preds = %49
  %54 = load ptr, ptr %2, align 8, !tbaa !3
  %55 = getelementptr inbounds nuw %struct.IDAMemRec, ptr %54, i32 0, i32 69
  %56 = load i32, ptr %3, align 4, !tbaa !88
  %57 = sext i32 %56 to i64
  %58 = getelementptr inbounds [6 x ptr], ptr %55, i64 0, i64 %57
  %59 = load ptr, ptr %58, align 8, !tbaa !94
  %60 = load ptr, ptr %2, align 8, !tbaa !3
  %61 = getelementptr inbounds nuw %struct.IDAMemRec, ptr %60, i32 0, i32 19
  %62 = load i32, ptr %61, align 4, !tbaa !173
  call void @N_VDestroyVectorArray(ptr noundef %59, i32 noundef %62)
  br label %63

63:                                               ; preds = %53
  %64 = load i32, ptr %3, align 4, !tbaa !88
  %65 = add nsw i32 %64, 1
  store i32 %65, ptr %3, align 4, !tbaa !88
  br label %49, !llvm.loop !282

66:                                               ; preds = %49
  %67 = load ptr, ptr %2, align 8, !tbaa !3
  %68 = getelementptr inbounds nuw %struct.IDAMemRec, ptr %67, i32 0, i32 25
  %69 = load ptr, ptr %68, align 8, !tbaa !60
  call void @free(ptr noundef %69) #8
  %70 = load ptr, ptr %2, align 8, !tbaa !3
  %71 = getelementptr inbounds nuw %struct.IDAMemRec, ptr %70, i32 0, i32 25
  store ptr null, ptr %71, align 8, !tbaa !60
  %72 = load ptr, ptr %2, align 8, !tbaa !3
  %73 = getelementptr inbounds nuw %struct.IDAMemRec, ptr %72, i32 0, i32 26
  %74 = load ptr, ptr %73, align 8, !tbaa !61
  call void @free(ptr noundef %74) #8
  %75 = load ptr, ptr %2, align 8, !tbaa !3
  %76 = getelementptr inbounds nuw %struct.IDAMemRec, ptr %75, i32 0, i32 26
  store ptr null, ptr %76, align 8, !tbaa !61
  %77 = load i32, ptr %4, align 4, !tbaa !88
  %78 = add nsw i32 %77, 3
  %79 = load ptr, ptr %2, align 8, !tbaa !3
  %80 = getelementptr inbounds nuw %struct.IDAMemRec, ptr %79, i32 0, i32 19
  %81 = load i32, ptr %80, align 4, !tbaa !173
  %82 = mul nsw i32 %78, %81
  %83 = add nsw i32 %82, 1
  %84 = sext i32 %83 to i64
  %85 = load ptr, ptr %2, align 8, !tbaa !3
  %86 = getelementptr inbounds nuw %struct.IDAMemRec, ptr %85, i32 0, i32 149
  %87 = load i64, ptr %86, align 8, !tbaa !104
  %88 = mul nsw i64 %84, %87
  %89 = load ptr, ptr %2, align 8, !tbaa !3
  %90 = getelementptr inbounds nuw %struct.IDAMemRec, ptr %89, i32 0, i32 19
  %91 = load i32, ptr %90, align 4, !tbaa !173
  %92 = sext i32 %91 to i64
  %93 = add nsw i64 %88, %92
  %94 = load ptr, ptr %2, align 8, !tbaa !3
  %95 = getelementptr inbounds nuw %struct.IDAMemRec, ptr %94, i32 0, i32 153
  %96 = load i64, ptr %95, align 8, !tbaa !73
  %97 = sub nsw i64 %96, %93
  store i64 %97, ptr %95, align 8, !tbaa !73
  %98 = load i32, ptr %4, align 4, !tbaa !88
  %99 = add nsw i32 %98, 3
  %100 = load ptr, ptr %2, align 8, !tbaa !3
  %101 = getelementptr inbounds nuw %struct.IDAMemRec, ptr %100, i32 0, i32 19
  %102 = load i32, ptr %101, align 4, !tbaa !173
  %103 = mul nsw i32 %99, %102
  %104 = add nsw i32 %103, 1
  %105 = sext i32 %104 to i64
  %106 = load ptr, ptr %2, align 8, !tbaa !3
  %107 = getelementptr inbounds nuw %struct.IDAMemRec, ptr %106, i32 0, i32 150
  %108 = load i64, ptr %107, align 8, !tbaa !105
  %109 = mul nsw i64 %105, %108
  %110 = load ptr, ptr %2, align 8, !tbaa !3
  %111 = getelementptr inbounds nuw %struct.IDAMemRec, ptr %110, i32 0, i32 19
  %112 = load i32, ptr %111, align 4, !tbaa !173
  %113 = sext i32 %112 to i64
  %114 = add nsw i64 %109, %113
  %115 = load ptr, ptr %2, align 8, !tbaa !3
  %116 = getelementptr inbounds nuw %struct.IDAMemRec, ptr %115, i32 0, i32 154
  %117 = load i64, ptr %116, align 8, !tbaa !74
  %118 = sub nsw i64 %117, %114
  store i64 %118, ptr %116, align 8, !tbaa !74
  %119 = load ptr, ptr %2, align 8, !tbaa !3
  %120 = getelementptr inbounds nuw %struct.IDAMemRec, ptr %119, i32 0, i32 165
  %121 = load i32, ptr %120, align 4, !tbaa !81
  %122 = icmp ne i32 %121, 0
  br i1 %122, label %123, label %156

123:                                              ; preds = %66
  %124 = load ptr, ptr %2, align 8, !tbaa !3
  %125 = getelementptr inbounds nuw %struct.IDAMemRec, ptr %124, i32 0, i32 33
  %126 = load ptr, ptr %125, align 8, !tbaa !201
  %127 = load ptr, ptr %2, align 8, !tbaa !3
  %128 = getelementptr inbounds nuw %struct.IDAMemRec, ptr %127, i32 0, i32 19
  %129 = load i32, ptr %128, align 4, !tbaa !173
  call void @N_VDestroyVectorArray(ptr noundef %126, i32 noundef %129)
  %130 = load ptr, ptr %2, align 8, !tbaa !3
  %131 = getelementptr inbounds nuw %struct.IDAMemRec, ptr %130, i32 0, i32 19
  %132 = load i32, ptr %131, align 4, !tbaa !173
  %133 = sext i32 %132 to i64
  %134 = load ptr, ptr %2, align 8, !tbaa !3
  %135 = getelementptr inbounds nuw %struct.IDAMemRec, ptr %134, i32 0, i32 149
  %136 = load i64, ptr %135, align 8, !tbaa !104
  %137 = mul nsw i64 %133, %136
  %138 = load ptr, ptr %2, align 8, !tbaa !3
  %139 = getelementptr inbounds nuw %struct.IDAMemRec, ptr %138, i32 0, i32 153
  %140 = load i64, ptr %139, align 8, !tbaa !73
  %141 = sub nsw i64 %140, %137
  store i64 %141, ptr %139, align 8, !tbaa !73
  %142 = load ptr, ptr %2, align 8, !tbaa !3
  %143 = getelementptr inbounds nuw %struct.IDAMemRec, ptr %142, i32 0, i32 19
  %144 = load i32, ptr %143, align 4, !tbaa !173
  %145 = sext i32 %144 to i64
  %146 = load ptr, ptr %2, align 8, !tbaa !3
  %147 = getelementptr inbounds nuw %struct.IDAMemRec, ptr %146, i32 0, i32 150
  %148 = load i64, ptr %147, align 8, !tbaa !105
  %149 = mul nsw i64 %145, %148
  %150 = load ptr, ptr %2, align 8, !tbaa !3
  %151 = getelementptr inbounds nuw %struct.IDAMemRec, ptr %150, i32 0, i32 154
  %152 = load i64, ptr %151, align 8, !tbaa !74
  %153 = sub nsw i64 %152, %149
  store i64 %153, ptr %151, align 8, !tbaa !74
  %154 = load ptr, ptr %2, align 8, !tbaa !3
  %155 = getelementptr inbounds nuw %struct.IDAMemRec, ptr %154, i32 0, i32 165
  store i32 0, ptr %155, align 4, !tbaa !81
  br label %156

156:                                              ; preds = %123, %66
  %157 = load ptr, ptr %2, align 8, !tbaa !3
  %158 = getelementptr inbounds nuw %struct.IDAMemRec, ptr %157, i32 0, i32 166
  %159 = load i32, ptr %158, align 8, !tbaa !82
  %160 = icmp ne i32 %159, 0
  br i1 %160, label %161, label %177

161:                                              ; preds = %156
  %162 = load ptr, ptr %2, align 8, !tbaa !3
  %163 = getelementptr inbounds nuw %struct.IDAMemRec, ptr %162, i32 0, i32 32
  %164 = load ptr, ptr %163, align 8, !tbaa !198
  call void @free(ptr noundef %164) #8
  %165 = load ptr, ptr %2, align 8, !tbaa !3
  %166 = getelementptr inbounds nuw %struct.IDAMemRec, ptr %165, i32 0, i32 32
  store ptr null, ptr %166, align 8, !tbaa !198
  %167 = load ptr, ptr %2, align 8, !tbaa !3
  %168 = getelementptr inbounds nuw %struct.IDAMemRec, ptr %167, i32 0, i32 19
  %169 = load i32, ptr %168, align 4, !tbaa !173
  %170 = sext i32 %169 to i64
  %171 = load ptr, ptr %2, align 8, !tbaa !3
  %172 = getelementptr inbounds nuw %struct.IDAMemRec, ptr %171, i32 0, i32 153
  %173 = load i64, ptr %172, align 8, !tbaa !73
  %174 = sub nsw i64 %173, %170
  store i64 %174, ptr %172, align 8, !tbaa !73
  %175 = load ptr, ptr %2, align 8, !tbaa !3
  %176 = getelementptr inbounds nuw %struct.IDAMemRec, ptr %175, i32 0, i32 166
  store i32 0, ptr %176, align 8, !tbaa !82
  br label %177

177:                                              ; preds = %161, %156
  call void @llvm.lifetime.end.p0(i64 4, ptr %4) #8
  call void @llvm.lifetime.end.p0(i64 4, ptr %3) #8
  ret void
}

; Function Attrs: nounwind uwtable
define void @IDASensFree(ptr noundef %0) #0 {
  %2 = alloca ptr, align 8
  %3 = alloca ptr, align 8
  %4 = alloca i32, align 4
  store ptr %0, ptr %2, align 8, !tbaa !91
  call void @llvm.lifetime.start.p0(i64 8, ptr %3) #8
  %5 = load ptr, ptr %2, align 8, !tbaa !91
  %6 = icmp eq ptr %5, null
  br i1 %6, label %7, label %8

7:                                                ; preds = %1
  store i32 1, ptr %4, align 4
  br label %21

8:                                                ; preds = %1
  %9 = load ptr, ptr %2, align 8, !tbaa !91
  store ptr %9, ptr %3, align 8, !tbaa !3
  %10 = load ptr, ptr %3, align 8, !tbaa !3
  %11 = getelementptr inbounds nuw %struct.IDAMemRec, ptr %10, i32 0, i32 167
  %12 = load i32, ptr %11, align 4, !tbaa !83
  %13 = icmp ne i32 %12, 0
  br i1 %13, label %14, label %20

14:                                               ; preds = %8
  %15 = load ptr, ptr %3, align 8, !tbaa !3
  call void @IDASensFreeVectors(ptr noundef %15)
  %16 = load ptr, ptr %3, align 8, !tbaa !3
  %17 = getelementptr inbounds nuw %struct.IDAMemRec, ptr %16, i32 0, i32 167
  store i32 0, ptr %17, align 4, !tbaa !83
  %18 = load ptr, ptr %3, align 8, !tbaa !3
  %19 = getelementptr inbounds nuw %struct.IDAMemRec, ptr %18, i32 0, i32 18
  store i32 0, ptr %19, align 8, !tbaa !53
  br label %20

20:                                               ; preds = %14, %8
  store i32 0, ptr %4, align 4
  br label %21

21:                                               ; preds = %20, %7
  call void @llvm.lifetime.end.p0(i64 8, ptr %3) #8
  %22 = load i32, ptr %4, align 4
  switch i32 %22, label %24 [
    i32 0, label %23
    i32 1, label %23
  ]

23:                                               ; preds = %21, %21
  ret void

24:                                               ; preds = %21
  unreachable
}