; Function Attrs: nounwind uwtable
define void @IDASensFree(ptr noundef captures(address_is_null) %0) local_unnamed_addr #0 {
  %2 = icmp eq ptr %0, null
  br i1 %2, label %84, label %3

3:                                                ; preds = %1
  %4 = getelementptr inbounds nuw i8, ptr %0, i64 1572
  %5 = load i32, ptr %4, align 4, !tbaa !159
  %.not = icmp eq i32 %5, 0
  br i1 %.not, label %84, label %6

6:                                                ; preds = %3
  %7 = getelementptr inbounds nuw i8, ptr %0, i64 880
  %8 = load ptr, ptr %7, align 8, !tbaa !148
  %9 = getelementptr inbounds nuw i8, ptr %0, i64 140
  %10 = load i32, ptr %9, align 4, !tbaa !139
  tail call void @N_VDestroyVectorArray(ptr noundef %8, i32 noundef %10) #13
  %11 = getelementptr inbounds nuw i8, ptr %0, i64 872
  %12 = load ptr, ptr %11, align 8, !tbaa !147
  %13 = load i32, ptr %9, align 4, !tbaa !139
  tail call void @N_VDestroyVectorArray(ptr noundef %12, i32 noundef %13) #13
  %14 = getelementptr inbounds nuw i8, ptr %0, i64 864
  %15 = load ptr, ptr %14, align 8, !tbaa !146
  %16 = load i32, ptr %9, align 4, !tbaa !139
  tail call void @N_VDestroyVectorArray(ptr noundef %15, i32 noundef %16) #13
  %17 = getelementptr inbounds nuw i8, ptr %0, i64 856
  %18 = load ptr, ptr %17, align 8, !tbaa !145
  %19 = load i32, ptr %9, align 4, !tbaa !139
  tail call void @N_VDestroyVectorArray(ptr noundef %18, i32 noundef %19) #13
  %20 = getelementptr inbounds nuw i8, ptr %0, i64 848
  %21 = load ptr, ptr %20, align 8, !tbaa !144
  %22 = load i32, ptr %9, align 4, !tbaa !139
  tail call void @N_VDestroyVectorArray(ptr noundef %21, i32 noundef %22) #13
  %23 = getelementptr inbounds nuw i8, ptr %0, i64 904
  %24 = load ptr, ptr %23, align 8, !tbaa !143
  tail call void @N_VDestroy(ptr noundef %24) #13
  %25 = getelementptr inbounds nuw i8, ptr %0, i64 1288
  %26 = load i32, ptr %25, align 8, !tbaa !27
  %spec.select.i = tail call i32 @llvm.smax.i32(i32 %26, i32 4)
  %27 = getelementptr inbounds nuw i8, ptr %0, i64 800
  %28 = add nuw i32 %spec.select.i, 1
  %wide.trip.count.i = zext i32 %28 to i64
  br label %29

29:                                               ; preds = %29, %6
  %indvars.iv.i = phi i64 [ 0, %6 ], [ %indvars.iv.next.i, %29 ]
  %30 = getelementptr inbounds nuw [6 x ptr], ptr %27, i64 0, i64 %indvars.iv.i
  %31 = load ptr, ptr %30, align 8, !tbaa !150
  %32 = load i32, ptr %9, align 4, !tbaa !139
  tail call void @N_VDestroyVectorArray(ptr noundef %31, i32 noundef %32) #13
  %indvars.iv.next.i = add nuw nsw i64 %indvars.iv.i, 1
  %exitcond.not.i = icmp eq i64 %indvars.iv.next.i, %wide.trip.count.i
  br i1 %exitcond.not.i, label %33, label %29, !llvm.loop !331

33:                                               ; preds = %29
  %34 = getelementptr inbounds nuw i8, ptr %0, i64 184
  %35 = load ptr, ptr %34, align 8, !tbaa !59
  tail call void @free(ptr noundef %35) #13
  store ptr null, ptr %34, align 8, !tbaa !59
  %36 = getelementptr inbounds nuw i8, ptr %0, i64 192
  %37 = load ptr, ptr %36, align 8, !tbaa !61
  tail call void @free(ptr noundef %37) #13
  store ptr null, ptr %36, align 8, !tbaa !61
  %38 = add nuw nsw i32 %spec.select.i, 3
  %39 = load i32, ptr %9, align 4, !tbaa !139
  %40 = mul nsw i32 %39, %38
  %41 = add nsw i32 %40, 1
  %42 = sext i32 %41 to i64
  %43 = getelementptr inbounds nuw i8, ptr %0, i64 1464
  %44 = load i64, ptr %43, align 8, !tbaa !89
  %45 = mul nsw i64 %44, %42
  %46 = sext i32 %39 to i64
  %47 = getelementptr inbounds nuw i8, ptr %0, i64 1496
  %48 = load i64, ptr %47, align 8, !tbaa !54
  %49 = add i64 %45, %46
  %50 = sub i64 %48, %49
  store i64 %50, ptr %47, align 8, !tbaa !54
  %51 = getelementptr inbounds nuw i8, ptr %0, i64 1472
  %52 = load i64, ptr %51, align 8, !tbaa !90
  %53 = mul nsw i64 %52, %42
  %54 = getelementptr inbounds nuw i8, ptr %0, i64 1504
  %55 = load i64, ptr %54, align 8, !tbaa !55
  %56 = add i64 %53, %46
  %57 = sub i64 %55, %56
  store i64 %57, ptr %54, align 8, !tbaa !55
  %58 = getelementptr inbounds nuw i8, ptr %0, i64 1564
  %59 = load i32, ptr %58, align 4, !tbaa !168
  %.not50.i = icmp eq i32 %59, 0
  br i1 %.not50.i, label %73, label %60

60:                                               ; preds = %33
  %61 = getelementptr inbounds nuw i8, ptr %0, i64 240
  %62 = load ptr, ptr %61, align 8, !tbaa !169
  tail call void @N_VDestroyVectorArray(ptr noundef %62, i32 noundef %39) #13
  %63 = load i32, ptr %9, align 4, !tbaa !139
  %64 = sext i32 %63 to i64
  %65 = load i64, ptr %43, align 8, !tbaa !89
  %66 = mul nsw i64 %65, %64
  %67 = load i64, ptr %47, align 8, !tbaa !54
  %68 = sub nsw i64 %67, %66
  store i64 %68, ptr %47, align 8, !tbaa !54
  %69 = load i64, ptr %51, align 8, !tbaa !90
  %70 = mul nsw i64 %69, %64
  %71 = load i64, ptr %54, align 8, !tbaa !55
  %72 = sub nsw i64 %71, %70
  store i64 %72, ptr %54, align 8, !tbaa !55
  store i32 0, ptr %58, align 4, !tbaa !168
  br label %73

73:                                               ; preds = %60, %33
  %74 = getelementptr inbounds nuw i8, ptr %0, i64 1568
  %75 = load i32, ptr %74, align 8, !tbaa !164
  %.not51.i = icmp eq i32 %75, 0
  br i1 %.not51.i, label %IDASensFreeVectors.exit, label %76

76:                                               ; preds = %73
  %77 = getelementptr inbounds nuw i8, ptr %0, i64 232
  %78 = load ptr, ptr %77, align 8, !tbaa !165
  tail call void @free(ptr noundef %78) #13
  store ptr null, ptr %77, align 8, !tbaa !165
  %79 = load i32, ptr %9, align 4, !tbaa !139
  %80 = sext i32 %79 to i64
  %81 = load i64, ptr %47, align 8, !tbaa !54
  %82 = sub nsw i64 %81, %80
  store i64 %82, ptr %47, align 8, !tbaa !54
  store i32 0, ptr %74, align 8, !tbaa !164
  br label %IDASensFreeVectors.exit

IDASensFreeVectors.exit:                          ; preds = %73, %76
  store i32 0, ptr %4, align 4, !tbaa !159
  %83 = getelementptr inbounds nuw i8, ptr %0, i64 136
  store i32 0, ptr %83, align 8, !tbaa !37
  br label %84

84:                                               ; preds = %3, %IDASensFreeVectors.exit, %1
  ret void
}